target datalayout = "e-m:e-p270:32:32-p271:32:32-p272:64:64-i64:64-i128:128-f80:128-n8:16:32:64-S128"
target triple = "x86_64-pc-linux-gnu"

%struct.Cec2_Par_t_ = type { i32, i32, i32, i32, i32, i32, i32, i32 }
%struct.Cec_ParFra_t_ = type { i32, i32, i32, i32, i32, i32, i32, i32, i32, i32, i32, i32, i32, i32, i32, i32, i32, i32, i32, i32, i32, i32, i32, i32, i32 }

; Function Attrs: nounwind uwtable
define void @Cec2_SetDefaultParams(ptr noundef %0) #0 {
  %2 = alloca ptr, align 8
  store ptr %0, ptr %2, align 8
  %3 = load ptr, ptr %2, align 8
  call void @llvm.memset.p0.i64(ptr align 4 %3, i8 0, i64 32, i1 false)
  %4 = load ptr, ptr %2, align 8
  %5 = getelementptr inbounds %struct.Cec2_Par_t_, ptr %4, i32 0, i32 0
  store i32 12, ptr %5, align 4
  %6 = load ptr, ptr %2, align 8
  %7 = getelementptr inbounds %struct.Cec2_Par_t_, ptr %6, i32 0, i32 1
  store i32 4, ptr %7, align 4
  %8 = load ptr, ptr %2, align 8
  %9 = getelementptr inbounds %struct.Cec2_Par_t_, ptr %8, i32 0, i32 2
  store i32 10, ptr %9, align 4
  %10 = load ptr, ptr %2, align 8
  %11 = getelementptr inbounds %struct.Cec2_Par_t_, ptr %10, i32 0, i32 3
  store i32 1000, ptr %11, align 4
  %12 = load ptr, ptr %2, align 8
  %13 = getelementptr inbounds %struct.Cec2_Par_t_, ptr %12, i32 0, i32 4
  store i32 0, ptr %13, align 4
  %14 = load ptr, ptr %2, align 8
  %15 = getelementptr inbounds %struct.Cec2_Par_t_, ptr %14, i32 0, i32 5
  store i32 1, ptr %15, align 4
  %16 = load ptr, ptr %2, align 8
  %17 = getelementptr inbounds %struct.Cec2_Par_t_, ptr %16, i32 0, i32 6
  store i32 0, ptr %17, align 4
  %18 = load ptr, ptr %2, align 8
  %19 = getelementptr inbounds %struct.Cec2_Par_t_, ptr %18, i32 0, i32 7
  store i32 0, ptr %19, align 4
  ret void
}

; Function Attrs: nounwind uwtable
define ptr @Cec2_ManSimulateTest(ptr noundef %0, ptr noundef %1) #0 {
  %3 = alloca ptr, align 8
  %4 = alloca ptr, align 8
  %5 = alloca ptr, align 8
  %6 = alloca %struct.Cec2_Par_t_, align 4
  %7 = alloca ptr, align 8
  store ptr %0, ptr %3, align 8
  store ptr %1, ptr %4, align 8
  store ptr null, ptr %5, align 8
  store ptr %6, ptr %7, align 8
  %8 = load ptr, ptr %7, align 8
  call void @Cec2_SetDefaultParams(ptr noundef %8)
  %9 = load ptr, ptr %4, align 8
  %10 = getelementptr inbounds %struct.Cec_ParFra_t_, ptr %9, i32 0, i32 4
  %11 = load i32, ptr %10, align 4
  %12 = load ptr, ptr %7, align 8
  %13 = getelementptr inbounds %struct.Cec2_Par_t_, ptr %12, i32 0, i32 3
  store i32 %11, ptr %13, align 4
  %14 = load ptr, ptr %4, align 8
  %15 = getelementptr inbounds %struct.Cec_ParFra_t_, ptr %14, i32 0, i32 18
  %16 = load i32, ptr %15, align 4
  %17 = load ptr, ptr %7, align 8
  %18 = getelementptr inbounds %struct.Cec2_Par_t_, ptr %17, i32 0, i32 5
  store i32 %16, ptr %18, align 4
  %19 = load ptr, ptr %4, align 8
  %20 = getelementptr inbounds %struct.Cec_ParFra_t_, ptr %19, i32 0, i32 21
  %21 = load i32, ptr %20, align 4
  %22 = load ptr, ptr %7, align 8
  %23 = getelementptr inbounds %struct.Cec2_Par_t_, ptr %22, i32 0, i32 7
  store i32 %21, ptr %23, align 4
  %24 = load ptr, ptr %3, align 8
  %25 = load ptr, ptr %7, align 8
  %26 = call i32 @Cec2_ManPerformSweeping(ptr noundef %24, ptr noundef %25, ptr noundef %5)
  %27 = load ptr, ptr %5, align 8
  ret ptr %27
}