; Function Attrs: nounwind uwtable
define ptr @Cec2_ManSimulateTest(ptr noundef %0, ptr noundef readonly captures(none) %1) local_unnamed_addr #2 {
  %3 = alloca ptr, align 8
  %4 = alloca %struct.Cec2_Par_t_, align 4
  store ptr null, ptr %3, align 8
  store i32 12, ptr %4, align 4
  %5 = getelementptr inbounds nuw i8, ptr %4, i64 4
  store i32 4, ptr %5, align 4
  %6 = getelementptr inbounds nuw i8, ptr %4, i64 8
  store i32 10, ptr %6, align 4
  %7 = getelementptr inbounds nuw i8, ptr %4, i64 12
  %8 = getelementptr inbounds nuw i8, ptr %4, i64 16
  store i32 0, ptr %8, align 4
  %9 = getelementptr inbounds nuw i8, ptr %4, i64 20
  %10 = getelementptr inbounds nuw i8, ptr %4, i64 24
  store i32 0, ptr %10, align 4
  %11 = getelementptr inbounds nuw i8, ptr %4, i64 28
  %12 = getelementptr inbounds nuw i8, ptr %1, i64 16
  %13 = load i32, ptr %12, align 4
  store i32 %13, ptr %7, align 4
  %14 = getelementptr inbounds nuw i8, ptr %1, i64 72
  %15 = load i32, ptr %14, align 4
  store i32 %15, ptr %9, align 4
  %16 = getelementptr inbounds nuw i8, ptr %1, i64 84
  %17 = load i32, ptr %16, align 4
  store i32 %17, ptr %11, align 4
  %18 = call i32 @Cec2_ManPerformSweeping(ptr noundef %0, ptr noundef nonnull %4, ptr noundef nonnull %3)
  %19 = load ptr, ptr %3, align 8
  ret ptr %19
}